target datalayout = "e-m:e-p270:32:32-p271:32:32-p272:64:64-i64:64-i128:128-f80:128-n8:16:32:64-S128"
target triple = "x86_64-pc-linux-gnu"

@hf_rtp_padding_data = internal global i32 0, align 4
@hf_rtp_ext_rfc5285_id = internal global i32 0, align 4
@hf_rtp_ext_rfc5285_length = internal global i32 0, align 4
@hf_rtp_ext_rfc5285_appbits = internal global i32 0, align 4
@hf_rtp_ext_rfc5285_data = internal global i32 0, align 4
@ett_hdr_ext_rfc5285 = internal global i32 0, align 4
@rtp_hdr_ext_rfc5285_dissector_table = internal global ptr null, align 8
@.str.328 = private unnamed_addr constant [44 x i8] c"RFC 5285 Header Extension (Two-Byte Header)\00", align 1

; Function Attrs: null_pointer_is_valid sspstrong uwtable
define internal void @dissect_rtp_hext_rfc5285_twobytes(ptr noundef %0, i32 noundef %1, i8 noundef zeroext %2, ptr noundef %3, ptr noundef %4, ptr noundef %5) #1 {
  %7 = alloca ptr, align 8
  %8 = alloca i32, align 4
  %9 = alloca i8, align 1
  %10 = alloca ptr, align 8
  %11 = alloca ptr, align 8
  %12 = alloca ptr, align 8
  %13 = alloca ptr, align 8
  %14 = alloca i32, align 4
  %15 = alloca i32, align 4
  %16 = alloca i8, align 1
  %17 = alloca i8, align 1
  %18 = alloca ptr, align 8
  %19 = alloca i32, align 4
  store ptr %0, ptr %7, align 8
  store i32 %1, ptr %8, align 4
  store i8 %2, ptr %9, align 1
  store ptr %3, ptr %10, align 8
  store ptr %4, ptr %11, align 8
  store ptr %5, ptr %12, align 8
  call void @llvm.lifetime.start.p0(i64 8, ptr %13) #14
  store ptr null, ptr %13, align 8
  call void @llvm.lifetime.start.p0(i64 4, ptr %14) #14
  store i32 0, ptr %14, align 4
  call void @llvm.lifetime.start.p0(i64 4, ptr %15) #14
  br label %20

20:                                               ; preds = %134, %6
  %21 = load i32, ptr %14, align 4
  %22 = add i32 %21, 2
  %23 = load ptr, ptr %10, align 8
  %24 = call i32 @tvb_captured_length(ptr noundef %23)
  %25 = icmp ult i32 %22, %24
  br i1 %25, label %26, label %135

26:                                               ; preds = %20
  call void @llvm.lifetime.start.p0(i64 1, ptr %16) #14
  call void @llvm.lifetime.start.p0(i64 1, ptr %17) #14
  call void @llvm.lifetime.start.p0(i64 8, ptr %18) #14
  %27 = load i32, ptr %14, align 4
  store i32 %27, ptr %15, align 4
  br label %28

28:                                               ; preds = %41, %26
  %29 = load ptr, ptr %10, align 8
  %30 = load i32, ptr %14, align 4
  %31 = call zeroext i8 @tvb_get_uint8(ptr noundef %29, i32 noundef %30)
  %32 = zext i8 %31 to i32
  %33 = icmp eq i32 %32, 0
  br i1 %33, label %34, label %44

34:                                               ; preds = %28
  %35 = load i32, ptr %14, align 4
  %36 = add i32 %35, 2
  %37 = load ptr, ptr %10, align 8
  %38 = call i32 @tvb_captured_length(ptr noundef %37)
  %39 = icmp uge i32 %36, %38
  br i1 %39, label %40, label %41

40:                                               ; preds = %34
  store i32 1, ptr %19, align 4
  br label %132

41:                                               ; preds = %34
  %42 = load i32, ptr %14, align 4
  %43 = add i32 %42, 1
  store i32 %43, ptr %14, align 4
  br label %28, !llvm.loop !20

44:                                               ; preds = %28
  %45 = load i32, ptr %14, align 4
  %46 = load i32, ptr %15, align 4
  %47 = icmp ugt i32 %45, %46
  br i1 %47, label %48, label %57

48:                                               ; preds = %44
  %49 = load ptr, ptr %12, align 8
  %50 = load i32, ptr @hf_rtp_padding_data, align 4
  %51 = load ptr, ptr %10, align 8
  %52 = load i32, ptr %15, align 4
  %53 = load i32, ptr %14, align 4
  %54 = load i32, ptr %15, align 4
  %55 = sub i32 %53, %54
  %56 = call ptr @proto_tree_add_item(ptr noundef %49, i32 noundef %50, ptr noundef %51, i32 noundef %52, i32 noundef %55, i32 noundef 0)
  br label %57

57:                                               ; preds = %48, %44
  %58 = load ptr, ptr %10, align 8
  %59 = load i32, ptr %14, align 4
  %60 = call zeroext i8 @tvb_get_uint8(ptr noundef %58, i32 noundef %59)
  store i8 %60, ptr %16, align 1
  %61 = load ptr, ptr %10, align 8
  %62 = load i32, ptr %14, align 4
  %63 = add i32 %62, 1
  %64 = call zeroext i8 @tvb_get_uint8(ptr noundef %61, i32 noundef %63)
  store i8 %64, ptr %17, align 1
  %65 = load ptr, ptr %12, align 8
  %66 = icmp ne ptr %65, null
  br i1 %66, label %67, label %100

67:                                               ; preds = %57
  %68 = load ptr, ptr %12, align 8
  %69 = load ptr, ptr %10, align 8
  %70 = load i32, ptr %14, align 4
  %71 = load i8, ptr %17, align 1
  %72 = zext i8 %71 to i32
  %73 = add i32 %72, 2
  %74 = load i32, ptr @ett_hdr_ext_rfc5285, align 4
  %75 = call ptr @proto_tree_add_subtree(ptr noundef %68, ptr noundef %69, i32 noundef %70, i32 noundef %73, i32 noundef %74, ptr noundef null, ptr noundef @.str.328)
  store ptr %75, ptr %13, align 8
  %76 = load ptr, ptr %13, align 8
  %77 = load i32, ptr @hf_rtp_ext_rfc5285_appbits, align 4
  %78 = load ptr, ptr %7, align 8
  %79 = load i32, ptr %8, align 4
  %80 = add i32 %79, 1
  %81 = load i8, ptr %9, align 1
  %82 = zext i8 %81 to i32
  %83 = and i32 %82, 15
  %84 = call ptr @proto_tree_add_uint(ptr noundef %76, i32 noundef %77, ptr noundef %78, i32 noundef %80, i32 noundef 1, i32 noundef %83)
  %85 = load ptr, ptr %13, align 8
  %86 = load i32, ptr @hf_rtp_ext_rfc5285_id, align 4
  %87 = load ptr, ptr %10, align 8
  %88 = load i32, ptr %14, align 4
  %89 = load i8, ptr %16, align 1
  %90 = zext i8 %89 to i32
  %91 = call ptr @proto_tree_add_uint(ptr noundef %85, i32 noundef %86, ptr noundef %87, i32 noundef %88, i32 noundef 1, i32 noundef %90)
  %92 = load ptr, ptr %13, align 8
  %93 = load i32, ptr @hf_rtp_ext_rfc5285_length, align 4
  %94 = load ptr, ptr %10, align 8
  %95 = load i32, ptr %14, align 4
  %96 = add i32 %95, 1
  %97 = load i8, ptr %17, align 1
  %98 = zext i8 %97 to i32
  %99 = call ptr @proto_tree_add_uint(ptr noundef %92, i32 noundef %93, ptr noundef %94, i32 noundef %96, i32 noundef 1, i32 noundef %98)
  br label %100

100:                                              ; preds = %67, %57
  %101 = load i32, ptr %14, align 4
  %102 = add i32 %101, 2
  store i32 %102, ptr %14, align 4
  %103 = load ptr, ptr %10, align 8
  %104 = load i32, ptr %14, align 4
  %105 = load i8, ptr %17, align 1
  %106 = zext i8 %105 to i32
  %107 = call ptr @tvb_new_subset_length(ptr noundef %103, i32 noundef %104, i32 noundef %106)
  store ptr %107, ptr %18, align 8
  %108 = load i8, ptr %17, align 1
  %109 = zext i8 %108 to i32
  %110 = icmp ne i32 %109, 0
  br i1 %110, label %111, label %127

111:                                              ; preds = %100
  %112 = load ptr, ptr @rtp_hdr_ext_rfc5285_dissector_table, align 8
  %113 = load i8, ptr %16, align 1
  %114 = zext i8 %113 to i32
  %115 = load ptr, ptr %18, align 8
  %116 = load ptr, ptr %11, align 8
  %117 = load ptr, ptr %13, align 8
  %118 = call i32 @dissector_try_uint(ptr noundef %112, i32 noundef %114, ptr noundef %115, ptr noundef %116, ptr noundef %117)
  %119 = icmp ne i32 %118, 0
  br i1 %119, label %127, label %120

120:                                              ; preds = %111
  %121 = load ptr, ptr %13, align 8
  %122 = load i32, ptr @hf_rtp_ext_rfc5285_data, align 4
  %123 = load ptr, ptr %18, align 8
  %124 = load i8, ptr %17, align 1
  %125 = zext i8 %124 to i32
  %126 = call ptr @proto_tree_add_item(ptr noundef %121, i32 noundef %122, ptr noundef %123, i32 noundef 0, i32 noundef %125, i32 noundef 0)
  br label %127

127:                                              ; preds = %120, %111, %100
  %128 = load i8, ptr %17, align 1
  %129 = zext i8 %128 to i32
  %130 = load i32, ptr %14, align 4
  %131 = add i32 %130, %129
  store i32 %131, ptr %14, align 4
  store i32 0, ptr %19, align 4
  br label %132

132:                                              ; preds = %127, %40
  call void @llvm.lifetime.end.p0(i64 8, ptr %18) #14
  call void @llvm.lifetime.end.p0(i64 1, ptr %17) #14
  call void @llvm.lifetime.end.p0(i64 1, ptr %16) #14
  %133 = load i32, ptr %19, align 4
  switch i32 %133, label %136 [
    i32 0, label %134
  ]

134:                                              ; preds = %132
  br label %20, !llvm.loop !21

135:                                              ; preds = %20
  store i32 0, ptr %19, align 4
  br label %136

136:                                              ; preds = %135, %132
  call void @llvm.lifetime.end.p0(i64 4, ptr %15) #14
  call void @llvm.lifetime.end.p0(i64 4, ptr %14) #14
  call void @llvm.lifetime.end.p0(i64 8, ptr %13) #14
  %137 = load i32, ptr %19, align 4
  switch i32 %137, label %139 [
    i32 0, label %138
    i32 1, label %138
  ]

138:                                              ; preds = %136, %136
  ret void

139:                                              ; preds = %136
  unreachable
}