; Function Attrs: null_pointer_is_valid sspstrong uwtable
define internal fastcc void @dissect_rtp_hext_rfc5285_twobytes(ptr noundef %0, i32 noundef %1, i8 noundef zeroext %2, ptr noundef %3, ptr noundef %4, ptr noundef %5) unnamed_addr #1 {
  %7 = tail call i32 @tvb_captured_length(ptr noundef %3)
  %8 = icmp ugt i32 %7, 2
  br i1 %8, label %.preheader.lr.ph, label %.thread

.preheader.lr.ph:                                 ; preds = %6
  %.not = icmp eq ptr %5, null
  %9 = add i32 %1, 1
  %10 = and i8 %2, 15
  %11 = zext nneg i8 %10 to i32
  br label %.preheader

.preheader:                                       ; preds = %.preheader.lr.ph, %46
  %.05067 = phi ptr [ null, %.preheader.lr.ph ], [ %.2, %46 ]
  %.05166 = phi i32 [ 0, %.preheader.lr.ph ], [ %47, %46 ]
  %12 = tail call zeroext i8 @tvb_get_uint8(ptr noundef %3, i32 noundef %.05166)
  %.not5964 = icmp eq i8 %12, 0
  br i1 %.not5964, label %.lr.ph, label %._crit_edge.thread

.lr.ph:                                           ; preds = %.preheader, %15
  %.15265 = phi i32 [ %16, %15 ], [ %.05166, %.preheader ]
  %13 = add i32 %.15265, 2
  %14 = tail call i32 @tvb_captured_length(ptr noundef %3)
  %.not58 = icmp ult i32 %13, %14
  br i1 %.not58, label %15, label %.thread

15:                                               ; preds = %.lr.ph
  %16 = add i32 %.15265, 1
  %17 = tail call zeroext i8 @tvb_get_uint8(ptr noundef %3, i32 noundef %16)
  %.not59 = icmp eq i8 %17, 0
  br i1 %.not59, label %.lr.ph, label %._crit_edge, !llvm.loop !20

._crit_edge:                                      ; preds = %15
  %18 = icmp ugt i32 %16, %.05166
  br i1 %18, label %19, label %._crit_edge.thread

19:                                               ; preds = %._crit_edge
  %20 = load i32, ptr @hf_rtp_padding_data, align 4
  %21 = sub nuw i32 %16, %.05166
  %22 = tail call ptr @proto_tree_add_item(ptr noundef %5, i32 noundef %20, ptr noundef %3, i32 noundef %.05166, i32 noundef %21, i32 noundef 0)
  br label %._crit_edge.thread

._crit_edge.thread:                               ; preds = %.preheader, %19, %._crit_edge
  %.152.lcssa71 = phi i32 [ %16, %19 ], [ %16, %._crit_edge ], [ %.05166, %.preheader ]
  %23 = tail call zeroext i8 @tvb_get_uint8(ptr noundef %3, i32 noundef %.152.lcssa71)
  %24 = add i32 %.152.lcssa71, 1
  %25 = tail call zeroext i8 @tvb_get_uint8(ptr noundef %3, i32 noundef %24)
  %.pre = zext i8 %25 to i32
  br i1 %.not, label %._crit_edge69, label %26

26:                                               ; preds = %._crit_edge.thread
  %27 = add nuw nsw i32 %.pre, 2
  %28 = load i32, ptr @ett_hdr_ext_rfc5285, align 4
  %29 = tail call ptr @proto_tree_add_subtree(ptr noundef nonnull %5, ptr noundef %3, i32 noundef %.152.lcssa71, i32 noundef %27, i32 noundef %28, ptr noundef null, ptr noundef nonnull @.str.328)
  %30 = load i32, ptr @hf_rtp_ext_rfc5285_appbits, align 4
  %31 = tail call ptr @proto_tree_add_uint(ptr noundef %29, i32 noundef %30, ptr noundef %0, i32 noundef %9, i32 noundef 1, i32 noundef %11)
  %32 = load i32, ptr @hf_rtp_ext_rfc5285_id, align 4
  %33 = zext i8 %23 to i32
  %34 = tail call ptr @proto_tree_add_uint(ptr noundef %29, i32 noundef %32, ptr noundef %3, i32 noundef %.152.lcssa71, i32 noundef 1, i32 noundef %33)
  %35 = load i32, ptr @hf_rtp_ext_rfc5285_length, align 4
  %36 = tail call ptr @proto_tree_add_uint(ptr noundef %29, i32 noundef %35, ptr noundef %3, i32 noundef %24, i32 noundef 1, i32 noundef %.pre)
  br label %._crit_edge69

._crit_edge69:                                    ; preds = %._crit_edge.thread, %26
  %.2 = phi ptr [ %29, %26 ], [ %.05067, %._crit_edge.thread ]
  %37 = add i32 %.152.lcssa71, 2
  %38 = tail call ptr @tvb_new_subset_length(ptr noundef %3, i32 noundef %37, i32 noundef %.pre)
  %.not56 = icmp eq i8 %25, 0
  br i1 %.not56, label %46, label %39

39:                                               ; preds = %._crit_edge69
  %40 = load ptr, ptr @rtp_hdr_ext_rfc5285_dissector_table, align 8
  %41 = zext i8 %23 to i32
  %42 = tail call i32 @dissector_try_uint(ptr noundef %40, i32 noundef %41, ptr noundef %38, ptr noundef %4, ptr noundef %.2)
  %.not57 = icmp eq i32 %42, 0
  br i1 %.not57, label %43, label %46

43:                                               ; preds = %39
  %44 = load i32, ptr @hf_rtp_ext_rfc5285_data, align 4
  %45 = tail call ptr @proto_tree_add_item(ptr noundef %.2, i32 noundef %44, ptr noundef %38, i32 noundef 0, i32 noundef %.pre, i32 noundef 0)
  br label %46

46:                                               ; preds = %._crit_edge69, %39, %43
  %47 = add i32 %37, %.pre
  %48 = add i32 %47, 2
  %49 = tail call i32 @tvb_captured_length(ptr noundef %3)
  %50 = icmp ult i32 %48, %49
  br i1 %50, label %.preheader, label %.thread, !llvm.loop !21

.thread:                                          ; preds = %46, %.lr.ph, %6
  ret void
}